; Function Attrs: mustprogress nounwind uwtable
define hidden void @_ZN6Assimp11XGLImporter5clearEv(ptr nocapture noundef nonnull align 8 dereferenceable(88) %this) local_unnamed_addr #0 align 2 personality ptr @__gxx_personality_v0 {
entry:
  %mXmlParser = getelementptr inbounds i8, ptr %this, i64 72
  %0 = load ptr, ptr %mXmlParser, align 8
  %isnull = icmp eq ptr %0, null
  br i1 %isnull, label %delete.end, label %delete.notnull

delete.notnull:                                   ; preds = %entry
  tail call void @_ZN6Assimp10TXmlParserIN4pugi8xml_nodeEE5clearEv(ptr noundef nonnull align 8 dereferenceable(40) %0)
  %mData.i = getelementptr inbounds i8, ptr %0, i64 16
  %1 = load ptr, ptr %mData.i, align 8
  %tobool.not.i.i.i.i = icmp eq ptr %1, null
  br i1 %tobool.not.i.i.i.i, label %_ZN6Assimp10TXmlParserIN4pugi8xml_nodeEED2Ev.exit, label %if.then.i.i.i.i

if.then.i.i.i.i:                                  ; preds = %delete.notnull
  tail call void @_ZdlPv(ptr noundef nonnull %1) #25
  br label %_ZN6Assimp10TXmlParserIN4pugi8xml_nodeEED2Ev.exit

_ZN6Assimp10TXmlParserIN4pugi8xml_nodeEED2Ev.exit: ; preds = %delete.notnull, %if.then.i.i.i.i
  tail call void @_ZNSaIcED2Ev(ptr noundef nonnull align 1 dereferenceable(1) %mData.i) #24
  tail call void @_ZdlPv(ptr noundef nonnull %0) #25
  br label %delete.end

delete.end:                                       ; preds = %_ZN6Assimp10TXmlParserIN4pugi8xml_nodeEED2Ev.exit, %entry
  store ptr null, ptr %mXmlParser, align 8
  ret void
}